target datalayout = "e-m:e-p270:32:32-p271:32:32-p272:64:64-i64:64-i128:128-f80:128-n8:16:32:64-S128"
target triple = "x86_64-unknown-linux-gnu"

; Function Attrs: nounwind uwtable
define hidden i64 @mz_crc32(i64 noundef %crc, ptr noundef %ptr, i64 noundef %buf_len) #0 {
entry:
  %retval = alloca i64, align 8
  %crc.addr = alloca i64, align 8
  %ptr.addr = alloca ptr, align 8
  %buf_len.addr = alloca i64, align 8
  %crcu32 = alloca i32, align 4
  %b = alloca i8, align 1
  store i64 %crc, ptr %crc.addr, align 8
  store ptr %ptr, ptr %ptr.addr, align 8
  store i64 %buf_len, ptr %buf_len.addr, align 8
  %0 = load i64, ptr %crc.addr, align 8
  %conv = trunc i64 %0 to i32
  store i32 %conv, ptr %crcu32, align 4
  %1 = load ptr, ptr %ptr.addr, align 8
  %tobool = icmp ne ptr %1, null
  br i1 %tobool, label %if.end, label %if.then

if.then:                                          ; preds = %entry
  store i64 0, ptr %retval, align 8
  br label %return

if.end:                                           ; preds = %entry
  %2 = load i32, ptr %crcu32, align 4
  %not = xor i32 %2, -1
  store i32 %not, ptr %crcu32, align 4
  br label %while.cond

while.cond:                                       ; preds = %while.body, %if.end
  %3 = load i64, ptr %buf_len.addr, align 8
  %dec = add i64 %3, -1
  store i64 %dec, ptr %buf_len.addr, align 8
  %tobool1 = icmp ne i64 %3, 0
  br i1 %tobool1, label %while.body, label %while.end

while.body:                                       ; preds = %while.cond
  %4 = load ptr, ptr %ptr.addr, align 8
  %incdec.ptr = getelementptr inbounds i8, ptr %4, i32 1
  store ptr %incdec.ptr, ptr %ptr.addr, align 8
  %5 = load i8, ptr %4, align 1
  store i8 %5, ptr %b, align 1
  %6 = load i32, ptr %crcu32, align 4
  %shr = lshr i32 %6, 4
  %7 = load i32, ptr %crcu32, align 4
  %and = and i32 %7, 15
  %8 = load i8, ptr %b, align 1
  %conv2 = zext i8 %8 to i32
  %and3 = and i32 %conv2, 15
  %xor = xor i32 %and, %and3
  %idxprom = zext i32 %xor to i64
  %arrayidx = getelementptr inbounds [16 x i32], ptr @mz_crc32.s_crc32, i64 0, i64 %idxprom
  %9 = load i32, ptr %arrayidx, align 4
  %xor4 = xor i32 %shr, %9
  store i32 %xor4, ptr %crcu32, align 4
  %10 = load i32, ptr %crcu32, align 4
  %shr5 = lshr i32 %10, 4
  %11 = load i32, ptr %crcu32, align 4
  %and6 = and i32 %11, 15
  %12 = load i8, ptr %b, align 1
  %conv7 = zext i8 %12 to i32
  %shr8 = ashr i32 %conv7, 4
  %xor9 = xor i32 %and6, %shr8
  %idxprom10 = zext i32 %xor9 to i64
  %arrayidx11 = getelementptr inbounds [16 x i32], ptr @mz_crc32.s_crc32, i64 0, i64 %idxprom10
  %13 = load i32, ptr %arrayidx11, align 4
  %xor12 = xor i32 %shr5, %13
  store i32 %xor12, ptr %crcu32, align 4
  br label %while.cond, !llvm.loop !8

while.end:                                        ; preds = %while.cond
  %14 = load i32, ptr %crcu32, align 4
  %not13 = xor i32 %14, -1
  %conv14 = zext i32 %not13 to i64
  store i64 %conv14, ptr %retval, align 8
  br label %return

return:                                           ; preds = %while.end, %if.then
  %15 = load i64, ptr %retval, align 8
  ret i64 %15
}