; Function Attrs: nofree norecurse nosync nounwind memory(argmem: read) uwtable
define hidden range(i64 0, 4294967296) i64 @mz_crc32(i64 noundef %crc, ptr noundef readonly %ptr, i64 noundef %buf_len) local_unnamed_addr #0 {
entry:
  %tobool.not = icmp eq ptr %ptr, null
  br i1 %tobool.not, label %return, label %if.end

if.end:                                           ; preds = %entry
  %conv = trunc i64 %crc to i32
  %tobool1.not9 = icmp eq i64 %buf_len, 0
  br i1 %tobool1.not9, label %while.end, label %while.body.preheader

while.body.preheader:                             ; preds = %if.end
  %not = xor i32 %conv, -1
  br label %while.body

while.body:                                       ; preds = %while.body.preheader, %while.body
  %crcu32.012 = phi i32 [ %xor12, %while.body ], [ %not, %while.body.preheader ]
  %buf_len.addr.011 = phi i64 [ %dec, %while.body ], [ %buf_len, %while.body.preheader ]
  %ptr.addr.010 = phi ptr [ %incdec.ptr, %while.body ], [ %ptr, %while.body.preheader ]
  %dec = add i64 %buf_len.addr.011, -1
  %incdec.ptr = getelementptr inbounds nuw i8, ptr %ptr.addr.010, i64 1
  %0 = load i8, ptr %ptr.addr.010, align 1
  %shr = lshr i32 %crcu32.012, 4
  %conv2 = zext i8 %0 to i32
  %and8 = xor i32 %crcu32.012, %conv2
  %xor = and i32 %and8, 15
  %idxprom = zext nneg i32 %xor to i64
  %arrayidx = getelementptr inbounds nuw [16 x i32], ptr @mz_crc32.s_crc32, i64 0, i64 %idxprom
  %1 = load i32, ptr %arrayidx, align 4
  %xor4 = xor i32 %1, %shr
  %shr5 = lshr i32 %xor4, 4
  %and6 = and i32 %xor4, 15
  %shr8 = lshr i32 %conv2, 4
  %xor9 = xor i32 %and6, %shr8
  %idxprom10 = zext nneg i32 %xor9 to i64
  %arrayidx11 = getelementptr inbounds nuw [16 x i32], ptr @mz_crc32.s_crc32, i64 0, i64 %idxprom10
  %2 = load i32, ptr %arrayidx11, align 4
  %xor12 = xor i32 %shr5, %2
  %tobool1.not = icmp eq i64 %dec, 0
  br i1 %tobool1.not, label %while.end.loopexit, label %while.body, !llvm.loop !8

while.end.loopexit:                               ; preds = %while.body
  %3 = xor i32 %xor12, -1
  br label %while.end

while.end:                                        ; preds = %while.end.loopexit, %if.end
  %crcu32.0.lcssa = phi i32 [ %conv, %if.end ], [ %3, %while.end.loopexit ]
  %conv14 = zext i32 %crcu32.0.lcssa to i64
  br label %return

return:                                           ; preds = %entry, %while.end
  %retval.0 = phi i64 [ %conv14, %while.end ], [ 0, %entry ]
  ret i64 %retval.0
}